target datalayout = "e-m:e-p270:32:32-p271:32:32-p272:64:64-i64:64-i128:128-f80:128-n8:16:32:64-S128"
target triple = "x86_64-pc-linux-gnu"

%struct._lv_anim_t = type { ptr, ptr, ptr, ptr, ptr, ptr, ptr, ptr, ptr, i32, i32, i32, i32, i32, i32, i32, i32, i32, %union._lv_anim_path_para_t, i32, i8 }
%union._lv_anim_path_para_t = type { %struct.lv_anim_bezier3_para_t }
%struct.lv_anim_bezier3_para_t = type { i16, i16, i16, i16 }

; Function Attrs: inlinehint nounwind uwtable
define internal void @lv_memzero(ptr noundef %0, i64 noundef %1) #2 {
  %3 = alloca ptr, align 8
  %4 = alloca i64, align 8
  store ptr %0, ptr %3, align 8, !tbaa !21
  store i64 %1, ptr %4, align 8, !tbaa !41
  %5 = load ptr, ptr %3, align 8, !tbaa !21
  %6 = load i64, ptr %4, align 8, !tbaa !41
  call void @lv_memset(ptr noundef %5, i8 noundef zeroext 0, i64 noundef %6)
  ret void
}

; Function Attrs: nounwind uwtable
define void @lv_anim_init(ptr noundef %0) #0 {
  %2 = alloca ptr, align 8
  store ptr %0, ptr %2, align 8, !tbaa !21
  %3 = load ptr, ptr %2, align 8, !tbaa !21
  call void @lv_memzero(ptr noundef %3, i64 noundef 128)
  %4 = load ptr, ptr %2, align 8, !tbaa !21
  %5 = getelementptr inbounds nuw %struct._lv_anim_t, ptr %4, i32 0, i32 12
  store i32 500, ptr %5, align 4, !tbaa !32
  %6 = load ptr, ptr %2, align 8, !tbaa !21
  %7 = getelementptr inbounds nuw %struct._lv_anim_t, ptr %6, i32 0, i32 9
  store i32 0, ptr %7, align 8, !tbaa !29
  %8 = load ptr, ptr %2, align 8, !tbaa !21
  %9 = getelementptr inbounds nuw %struct._lv_anim_t, ptr %8, i32 0, i32 11
  store i32 100, ptr %9, align 8, !tbaa !30
  %10 = load ptr, ptr %2, align 8, !tbaa !21
  %11 = getelementptr inbounds nuw %struct._lv_anim_t, ptr %10, i32 0, i32 17
  store i32 1, ptr %11, align 8, !tbaa !40
  %12 = load ptr, ptr %2, align 8, !tbaa !21
  %13 = getelementptr inbounds nuw %struct._lv_anim_t, ptr %12, i32 0, i32 8
  store ptr @lv_anim_path_linear, ptr %13, align 8, !tbaa !33
  %14 = load ptr, ptr %2, align 8, !tbaa !21
  %15 = getelementptr inbounds nuw %struct._lv_anim_t, ptr %14, i32 0, i32 20
  %16 = load i8, ptr %15, align 8
  %17 = and i8 %16, -9
  %18 = or i8 %17, 8
  store i8 %18, ptr %15, align 8
  ret void
}