; Function Attrs: nounwind uwtable
define void @lv_anim_init(ptr noundef %0) local_unnamed_addr #0 {
  tail call void @lv_memset(ptr noundef %0, i8 noundef zeroext 0, i64 noundef 128) #8
  %2 = getelementptr inbounds nuw i8, ptr %0, i64 84
  store i32 500, ptr %2, align 4, !tbaa !30
  %3 = getelementptr inbounds nuw i8, ptr %0, i64 72
  store i32 0, ptr %3, align 8, !tbaa !27
  %4 = getelementptr inbounds nuw i8, ptr %0, i64 80
  store i32 100, ptr %4, align 8, !tbaa !28
  %5 = getelementptr inbounds nuw i8, ptr %0, i64 104
  store i32 1, ptr %5, align 8, !tbaa !36
  %6 = getelementptr inbounds nuw i8, ptr %0, i64 64
  store ptr @lv_anim_path_linear, ptr %6, align 8, !tbaa !31
  %7 = getelementptr inbounds nuw i8, ptr %0, i64 120
  %8 = load i8, ptr %7, align 8
  %9 = or i8 %8, 8
  store i8 %9, ptr %7, align 8
  ret void
}